target datalayout = "e-m:e-p270:32:32-p271:32:32-p272:64:64-i64:64-i128:128-f80:128-n8:16:32:64-S128"
target triple = "x86_64-pc-linux-gnu"

%struct._value_string_ext = type { ptr, i32, i32, ptr, ptr }
%struct.expert_field = type { i32, i32 }
%struct._packet_info = type { ptr, ptr, i32, i32, %struct.nstime_t, %struct.nstime_t, %struct.nstime_t, i8, ptr, ptr, ptr, ptr, %struct._address, %struct._address, %struct._address, %struct._address, %struct._address, %struct._address, i32, ptr, i8, [3 x i8], %struct.anon, i32, i32, i32, i32, ptr, i8, ptr, ptr, i16, i16, i32, i32, i16, i32, i32, ptr, ptr, ptr, i8, i8, i16, i16, i16, i32, i16, i16, ptr, ptr, ptr, ptr, ptr, i32, i32 }
%struct.nstime_t = type { i64, i32 }
%struct._address = type { i32, i32, ptr, ptr }
%struct.anon = type { i8, [3 x i8] }

@proto_uma = internal global i32 0, align 4
@hf_uma_length_indicator = internal global i32 0, align 4
@hf_uma_pd = internal global i32 0, align 4
@hf_uma_skip_ind = internal global i32 0, align 4
@hf_uma_urr_msg_type = internal global i32 0, align 4
@uma_urr_msg_type_vals_ext = internal global %struct._value_string_ext { ptr @_try_val_to_str_ext_init, i32 0, i32 43, ptr @uma_urr_msg_type_vals, ptr @.str.234 }, align 8
@hf_uma_urlc_msg_type = internal global i32 0, align 4
@uma_urlc_msg_type_vals_ext = internal global %struct._value_string_ext { ptr @_try_val_to_str_ext_init, i32 0, i32 18, ptr @uma_urlc_msg_type_vals, ptr @.str.279 }, align 8
@hf_uma_urlc_TLLI = internal global i32 0, align 4
@ett_uma = internal global i32 0, align 4
@ei_uma_skip_this_message = internal global %struct.expert_field zeroinitializer, align 4
@ei_uma_unknown_protocol = internal global %struct.expert_field zeroinitializer, align 4
@.str.221 = private unnamed_addr constant [4 x i8] c"UMA\00", align 1
@.str.609 = private unnamed_addr constant [17 x i8] c"Unknown URR (%u)\00", align 1
@.str.610 = private unnamed_addr constant [18 x i8] c"Unknown URLC (%u)\00", align 1

; Function Attrs: null_pointer_is_valid sspstrong uwtable
define internal i32 @dissect_uma(ptr noundef %0, ptr noundef %1, ptr noundef %2, ptr noundef %3) #0 {
  %5 = alloca i32, align 4
  %6 = alloca ptr, align 8
  %7 = alloca ptr, align 8
  %8 = alloca ptr, align 8
  %9 = alloca ptr, align 8
  %10 = alloca i32, align 4
  %11 = alloca i8, align 1
  %12 = alloca i8, align 1
  %13 = alloca i16, align 2
  %14 = alloca ptr, align 8
  %15 = alloca ptr, align 8
  %16 = alloca ptr, align 8
  %17 = alloca i32, align 4
  store ptr %0, ptr %6, align 8
  store ptr %1, ptr %7, align 8
  store ptr %2, ptr %8, align 8
  store ptr %3, ptr %9, align 8
  call void @llvm.lifetime.start.p0(i64 4, ptr %10) #4
  store i32 0, ptr %10, align 4
  call void @llvm.lifetime.start.p0(i64 1, ptr %11) #4
  call void @llvm.lifetime.start.p0(i64 1, ptr %12) #4
  call void @llvm.lifetime.start.p0(i64 2, ptr %13) #4
  call void @llvm.lifetime.start.p0(i64 8, ptr %14) #4
  call void @llvm.lifetime.start.p0(i64 8, ptr %15) #4
  call void @llvm.lifetime.start.p0(i64 8, ptr %16) #4
  %18 = load ptr, ptr %7, align 8
  %19 = getelementptr inbounds nuw %struct._packet_info, ptr %18, i32 0, i32 1
  %20 = load ptr, ptr %19, align 8
  call void @col_set_str(ptr noundef %20, i32 noundef 35, ptr noundef @.str.221)
  %21 = load ptr, ptr %7, align 8
  %22 = getelementptr inbounds nuw %struct._packet_info, ptr %21, i32 0, i32 1
  %23 = load ptr, ptr %22, align 8
  call void @col_clear(ptr noundef %23, i32 noundef 25)
  %24 = load ptr, ptr %8, align 8
  %25 = load i32, ptr @proto_uma, align 4
  %26 = load ptr, ptr %6, align 8
  %27 = call ptr @proto_tree_add_item(ptr noundef %24, i32 noundef %25, ptr noundef %26, i32 noundef 0, i32 noundef -1, i32 noundef 0)
  store ptr %27, ptr %15, align 8
  %28 = load ptr, ptr %15, align 8
  %29 = load i32, ptr @ett_uma, align 4
  %30 = call ptr @proto_item_add_subtree(ptr noundef %28, i32 noundef %29)
  store ptr %30, ptr %16, align 8
  %31 = load ptr, ptr %6, align 8
  %32 = load i32, ptr %10, align 4
  %33 = call zeroext i16 @tvb_get_ntohs(ptr noundef %31, i32 noundef %32)
  store i16 %33, ptr %13, align 2
  %34 = load ptr, ptr %16, align 8
  %35 = load i32, ptr @hf_uma_length_indicator, align 4
  %36 = load ptr, ptr %6, align 8
  %37 = load i32, ptr %10, align 4
  %38 = call ptr @proto_tree_add_item(ptr noundef %34, i32 noundef %35, ptr noundef %36, i32 noundef %37, i32 noundef 2, i32 noundef 0)
  %39 = load i32, ptr %10, align 4
  %40 = add i32 %39, 2
  store i32 %40, ptr %10, align 4
  %41 = load ptr, ptr %6, align 8
  %42 = load i32, ptr %10, align 4
  %43 = call zeroext i8 @tvb_get_uint8(ptr noundef %41, i32 noundef %42)
  store i8 %43, ptr %11, align 1
  %44 = load i8, ptr %11, align 1
  %45 = zext i8 %44 to i32
  %46 = and i32 %45, 15
  %47 = trunc i32 %46 to i8
  store i8 %47, ptr %12, align 1
  %48 = load ptr, ptr %16, align 8
  %49 = load i32, ptr @hf_uma_skip_ind, align 4
  %50 = load ptr, ptr %6, align 8
  %51 = load i32, ptr %10, align 4
  %52 = call ptr @proto_tree_add_item(ptr noundef %48, i32 noundef %49, ptr noundef %50, i32 noundef %51, i32 noundef 1, i32 noundef 0)
  %53 = load i8, ptr %11, align 1
  %54 = zext i8 %53 to i32
  %55 = and i32 %54, 240
  %56 = icmp ne i32 %55, 0
  br i1 %56, label %57, label %65

57:                                               ; preds = %4
  %58 = load ptr, ptr %16, align 8
  %59 = load ptr, ptr %7, align 8
  %60 = load ptr, ptr %6, align 8
  %61 = load i32, ptr %10, align 4
  %62 = call ptr @proto_tree_add_expert(ptr noundef %58, ptr noundef %59, ptr noundef @ei_uma_skip_this_message, ptr noundef %60, i32 noundef %61, i32 noundef -1)
  %63 = load ptr, ptr %6, align 8
  %64 = call i32 @tvb_reported_length(ptr noundef %63)
  store i32 %64, ptr %5, align 4
  store i32 1, ptr %17, align 4
  br label %156

65:                                               ; preds = %4
  %66 = load ptr, ptr %16, align 8
  %67 = load i32, ptr @hf_uma_pd, align 4
  %68 = load ptr, ptr %6, align 8
  %69 = load i32, ptr %10, align 4
  %70 = call ptr @proto_tree_add_item(ptr noundef %66, i32 noundef %67, ptr noundef %68, i32 noundef %69, i32 noundef 1, i32 noundef 0)
  store ptr %70, ptr %14, align 8
  %71 = load i8, ptr %12, align 1
  %72 = zext i8 %71 to i32
  switch i32 %72, label %149 [
    i32 0, label %73
    i32 1, label %73
    i32 2, label %105
  ]

73:                                               ; preds = %65, %65
  %74 = load i32, ptr %10, align 4
  %75 = add i32 %74, 1
  store i32 %75, ptr %10, align 4
  %76 = load ptr, ptr %6, align 8
  %77 = load i32, ptr %10, align 4
  %78 = call zeroext i8 @tvb_get_uint8(ptr noundef %76, i32 noundef %77)
  store i8 %78, ptr %11, align 1
  %79 = load ptr, ptr %16, align 8
  %80 = load i32, ptr @hf_uma_urr_msg_type, align 4
  %81 = load ptr, ptr %6, align 8
  %82 = load i32, ptr %10, align 4
  %83 = call ptr @proto_tree_add_item(ptr noundef %79, i32 noundef %80, ptr noundef %81, i32 noundef %82, i32 noundef 1, i32 noundef 0)
  %84 = load ptr, ptr %7, align 8
  %85 = getelementptr inbounds nuw %struct._packet_info, ptr %84, i32 0, i32 1
  %86 = load ptr, ptr %85, align 8
  %87 = load i8, ptr %11, align 1
  %88 = zext i8 %87 to i32
  %89 = call ptr @val_to_str_ext(i32 noundef %88, ptr noundef @uma_urr_msg_type_vals_ext, ptr noundef @.str.609)
  call void @col_add_str(ptr noundef %86, i32 noundef 25, ptr noundef %89)
  br label %90

90:                                               ; preds = %96, %73
  %91 = load i16, ptr %13, align 2
  %92 = zext i16 %91 to i32
  %93 = add i32 %92, 1
  %94 = load i32, ptr %10, align 4
  %95 = icmp sgt i32 %93, %94
  br i1 %95, label %96, label %104

96:                                               ; preds = %90
  %97 = load i32, ptr %10, align 4
  %98 = add i32 %97, 1
  store i32 %98, ptr %10, align 4
  %99 = load ptr, ptr %6, align 8
  %100 = load ptr, ptr %7, align 8
  %101 = load ptr, ptr %16, align 8
  %102 = load i32, ptr %10, align 4
  %103 = call i32 @dissect_uma_IE(ptr noundef %99, ptr noundef %100, ptr noundef %101, i32 noundef %102)
  store i32 %103, ptr %10, align 4
  br label %90, !llvm.loop !10

104:                                              ; preds = %90
  br label %153

105:                                              ; preds = %65
  %106 = load i32, ptr %10, align 4
  %107 = add i32 %106, 1
  store i32 %107, ptr %10, align 4
  %108 = load ptr, ptr %6, align 8
  %109 = load i32, ptr %10, align 4
  %110 = call zeroext i8 @tvb_get_uint8(ptr noundef %108, i32 noundef %109)
  store i8 %110, ptr %11, align 1
  %111 = load ptr, ptr %16, align 8
  %112 = load i32, ptr @hf_uma_urlc_msg_type, align 4
  %113 = load ptr, ptr %6, align 8
  %114 = load i32, ptr %10, align 4
  %115 = call ptr @proto_tree_add_item(ptr noundef %111, i32 noundef %112, ptr noundef %113, i32 noundef %114, i32 noundef 1, i32 noundef 0)
  %116 = load ptr, ptr %7, align 8
  %117 = getelementptr inbounds nuw %struct._packet_info, ptr %116, i32 0, i32 1
  %118 = load ptr, ptr %117, align 8
  %119 = load i8, ptr %11, align 1
  %120 = zext i8 %119 to i32
  %121 = call ptr @val_to_str_ext(i32 noundef %120, ptr noundef @uma_urlc_msg_type_vals_ext, ptr noundef @.str.610)
  call void @col_add_str(ptr noundef %118, i32 noundef 25, ptr noundef %121)
  %122 = load ptr, ptr %7, align 8
  %123 = getelementptr inbounds nuw %struct._packet_info, ptr %122, i32 0, i32 1
  %124 = load ptr, ptr %123, align 8
  call void @col_set_fence(ptr noundef %124, i32 noundef 25)
  %125 = load i32, ptr %10, align 4
  %126 = add i32 %125, 1
  store i32 %126, ptr %10, align 4
  %127 = load ptr, ptr %16, align 8
  %128 = load i32, ptr @hf_uma_urlc_TLLI, align 4
  %129 = load ptr, ptr %6, align 8
  %130 = load i32, ptr %10, align 4
  %131 = call ptr @proto_tree_add_item(ptr noundef %127, i32 noundef %128, ptr noundef %129, i32 noundef %130, i32 noundef 4, i32 noundef 0)
  %132 = load i32, ptr %10, align 4
  %133 = add i32 %132, 3
  store i32 %133, ptr %10, align 4
  br label %134

134:                                              ; preds = %140, %105
  %135 = load i16, ptr %13, align 2
  %136 = zext i16 %135 to i32
  %137 = add i32 %136, 1
  %138 = load i32, ptr %10, align 4
  %139 = icmp sgt i32 %137, %138
  br i1 %139, label %140, label %148

140:                                              ; preds = %134
  %141 = load i32, ptr %10, align 4
  %142 = add i32 %141, 1
  store i32 %142, ptr %10, align 4
  %143 = load ptr, ptr %6, align 8
  %144 = load ptr, ptr %7, align 8
  %145 = load ptr, ptr %16, align 8
  %146 = load i32, ptr %10, align 4
  %147 = call i32 @dissect_uma_IE(ptr noundef %143, ptr noundef %144, ptr noundef %145, i32 noundef %146)
  store i32 %147, ptr %10, align 4
  br label %134, !llvm.loop !11

148:                                              ; preds = %134
  br label %153

149:                                              ; preds = %65
  %150 = load ptr, ptr %7, align 8
  %151 = load ptr, ptr %14, align 8
  %152 = call ptr @expert_add_info(ptr noundef %150, ptr noundef %151, ptr noundef @ei_uma_unknown_protocol)
  br label %153

153:                                              ; preds = %149, %148, %104
  %154 = load ptr, ptr %6, align 8
  %155 = call i32 @tvb_reported_length(ptr noundef %154)
  store i32 %155, ptr %5, align 4
  store i32 1, ptr %17, align 4
  br label %156

156:                                              ; preds = %153, %57
  call void @llvm.lifetime.end.p0(i64 8, ptr %16) #4
  call void @llvm.lifetime.end.p0(i64 8, ptr %15) #4
  call void @llvm.lifetime.end.p0(i64 8, ptr %14) #4
  call void @llvm.lifetime.end.p0(i64 2, ptr %13) #4
  call void @llvm.lifetime.end.p0(i64 1, ptr %12) #4
  call void @llvm.lifetime.end.p0(i64 1, ptr %11) #4
  call void @llvm.lifetime.end.p0(i64 4, ptr %10) #4
  %157 = load i32, ptr %5, align 4
  ret i32 %157
}