; Function Attrs: null_pointer_is_valid sspstrong uwtable
define internal i32 @dissect_uma(ptr noundef %0, ptr noundef %1, ptr noundef %2, ptr readnone captures(none) %3) #0 {
  %5 = getelementptr inbounds nuw i8, ptr %1, i64 8
  %6 = load ptr, ptr %5, align 8
  tail call void @col_set_str(ptr noundef %6, i32 noundef 35, ptr noundef nonnull @.str.221)
  %7 = load ptr, ptr %5, align 8
  tail call void @col_clear(ptr noundef %7, i32 noundef 25)
  %8 = load i32, ptr @proto_uma, align 4
  %9 = tail call ptr @proto_tree_add_item(ptr noundef %2, i32 noundef %8, ptr noundef %0, i32 noundef 0, i32 noundef -1, i32 noundef 0)
  %10 = load i32, ptr @ett_uma, align 4
  %11 = tail call ptr @proto_item_add_subtree(ptr noundef %9, i32 noundef %10)
  %12 = tail call zeroext i16 @tvb_get_ntohs(ptr noundef %0, i32 noundef 0)
  %13 = load i32, ptr @hf_uma_length_indicator, align 4
  %14 = tail call ptr @proto_tree_add_item(ptr noundef %11, i32 noundef %13, ptr noundef %0, i32 noundef 0, i32 noundef 2, i32 noundef 0)
  %15 = tail call zeroext i8 @tvb_get_uint8(ptr noundef %0, i32 noundef 2)
  %16 = load i32, ptr @hf_uma_skip_ind, align 4
  %17 = tail call ptr @proto_tree_add_item(ptr noundef %11, i32 noundef %16, ptr noundef %0, i32 noundef 2, i32 noundef 1, i32 noundef 0)
  %.not = icmp ult i8 %15, 16
  br i1 %.not, label %20, label %18

18:                                               ; preds = %4
  %19 = tail call ptr @proto_tree_add_expert(ptr noundef %11, ptr noundef %1, ptr noundef nonnull @ei_uma_skip_this_message, ptr noundef %0, i32 noundef 2, i32 noundef -1)
  br label %.loopexit

20:                                               ; preds = %4
  %21 = load i32, ptr @hf_uma_pd, align 4
  %22 = tail call ptr @proto_tree_add_item(ptr noundef %11, i32 noundef %21, ptr noundef %0, i32 noundef 2, i32 noundef 1, i32 noundef 0)
  switch i8 %15, label %46 [
    i8 0, label %23
    i8 1, label %23
    i8 2, label %33
  ]

23:                                               ; preds = %20, %20
  %24 = tail call zeroext i8 @tvb_get_uint8(ptr noundef %0, i32 noundef 3)
  %25 = load i32, ptr @hf_uma_urr_msg_type, align 4
  %26 = tail call ptr @proto_tree_add_item(ptr noundef %11, i32 noundef %25, ptr noundef %0, i32 noundef 3, i32 noundef 1, i32 noundef 0)
  %27 = load ptr, ptr %5, align 8
  %28 = zext i8 %24 to i32
  %29 = tail call ptr @val_to_str_ext(i32 noundef %28, ptr noundef nonnull @uma_urr_msg_type_vals_ext, ptr noundef nonnull @.str.609)
  tail call void @col_add_str(ptr noundef %27, i32 noundef 25, ptr noundef %29)
  %30 = zext i16 %12 to i32
  %.not6872 = icmp ult i16 %12, 3
  br i1 %.not6872, label %.loopexit, label %.lr.ph74

.lr.ph74:                                         ; preds = %23, %.lr.ph74
  %.06673 = phi i32 [ %32, %.lr.ph74 ], [ 3, %23 ]
  %31 = add nsw i32 %.06673, 1
  %32 = tail call fastcc i32 @dissect_uma_IE(ptr noundef %0, ptr noundef %1, ptr noundef %11, i32 noundef %31)
  %.not68 = icmp sgt i32 %32, %30
  br i1 %.not68, label %.loopexit, label %.lr.ph74, !llvm.loop !10

33:                                               ; preds = %20
  %34 = tail call zeroext i8 @tvb_get_uint8(ptr noundef %0, i32 noundef 3)
  %35 = load i32, ptr @hf_uma_urlc_msg_type, align 4
  %36 = tail call ptr @proto_tree_add_item(ptr noundef %11, i32 noundef %35, ptr noundef %0, i32 noundef 3, i32 noundef 1, i32 noundef 0)
  %37 = load ptr, ptr %5, align 8
  %38 = zext i8 %34 to i32
  %39 = tail call ptr @val_to_str_ext(i32 noundef %38, ptr noundef nonnull @uma_urlc_msg_type_vals_ext, ptr noundef nonnull @.str.610)
  tail call void @col_add_str(ptr noundef %37, i32 noundef 25, ptr noundef %39)
  %40 = load ptr, ptr %5, align 8
  tail call void @col_set_fence(ptr noundef %40, i32 noundef 25)
  %41 = load i32, ptr @hf_uma_urlc_TLLI, align 4
  %42 = tail call ptr @proto_tree_add_item(ptr noundef %11, i32 noundef %41, ptr noundef %0, i32 noundef 4, i32 noundef 4, i32 noundef 0)
  %43 = zext i16 %12 to i32
  %.not6770 = icmp ult i16 %12, 7
  br i1 %.not6770, label %.loopexit, label %.lr.ph

.lr.ph:                                           ; preds = %33, %.lr.ph
  %.171 = phi i32 [ %45, %.lr.ph ], [ 7, %33 ]
  %44 = add nsw i32 %.171, 1
  %45 = tail call fastcc i32 @dissect_uma_IE(ptr noundef %0, ptr noundef %1, ptr noundef %11, i32 noundef %44)
  %.not67 = icmp sgt i32 %45, %43
  br i1 %.not67, label %.loopexit, label %.lr.ph, !llvm.loop !11

46:                                               ; preds = %20
  %47 = tail call ptr @expert_add_info(ptr noundef %1, ptr noundef %22, ptr noundef nonnull @ei_uma_unknown_protocol)
  br label %.loopexit

.loopexit:                                        ; preds = %.lr.ph, %.lr.ph74, %46, %23, %33, %18
  %48 = tail call i32 @tvb_reported_length(ptr noundef %0)
  ret i32 %48
}